
vfpu:     file format elf64-littleriscv


Disassembly of section .text.init:

0000000080000000 <_start>:
    80000000:	4081                	li	ra,0
    80000002:	4101                	li	sp,0
    80000004:	4181                	li	gp,0
    80000006:	4201                	li	tp,0
    80000008:	4281                	li	t0,0
    8000000a:	4301                	li	t1,0
    8000000c:	4381                	li	t2,0
    8000000e:	4401                	li	s0,0
    80000010:	4481                	li	s1,0
    80000012:	4501                	li	a0,0
    80000014:	4581                	li	a1,0
    80000016:	4601                	li	a2,0
    80000018:	4681                	li	a3,0
    8000001a:	4701                	li	a4,0
    8000001c:	4781                	li	a5,0
    8000001e:	4801                	li	a6,0
    80000020:	4881                	li	a7,0
    80000022:	4901                	li	s2,0
    80000024:	4981                	li	s3,0
    80000026:	4a01                	li	s4,0
    80000028:	4a81                	li	s5,0
    8000002a:	4b01                	li	s6,0
    8000002c:	4b81                	li	s7,0
    8000002e:	4c01                	li	s8,0
    80000030:	4c81                	li	s9,0
    80000032:	4d01                	li	s10,0
    80000034:	4d81                	li	s11,0
    80000036:	4e01                	li	t3,0
    80000038:	4e81                	li	t4,0
    8000003a:	4f01                	li	t5,0
    8000003c:	4f81                	li	t6,0
    8000003e:	00014217          	auipc	tp,0x14
    80000042:	03a20213          	add	tp,tp,58 # 80014078 <_tdata_begin>
    80000046:	62f9                	lui	t0,0x1e
    80000048:	3002a073          	csrs	mstatus,t0
    8000004c:	4285                	li	t0,1
    8000004e:	02fe                	sll	t0,t0,0x1f
    80000050:	0002d863          	bgez	t0,80000060 <_start+0x60>
    80000054:	4505                	li	a0,1
    80000056:	00001297          	auipc	t0,0x1
    8000005a:	faa2a523          	sw	a0,-86(t0) # 80001000 <tohost>
    8000005e:	bfdd                	j	80000054 <_start+0x54>
    80000060:	00000297          	auipc	t0,0x0
    80000064:	09028293          	add	t0,t0,144 # 800000f0 <_start+0xf0>
    80000068:	30529073          	csrw	mtvec,t0
    8000006c:	00301073          	fscsr	zero
    80000070:	f0000053          	fmv.w.x	ft0,zero
    80000074:	f00000d3          	fmv.w.x	ft1,zero
    80000078:	f0000153          	fmv.w.x	ft2,zero
    8000007c:	f00001d3          	fmv.w.x	ft3,zero
    80000080:	f0000253          	fmv.w.x	ft4,zero
    80000084:	f00002d3          	fmv.w.x	ft5,zero
    80000088:	f0000353          	fmv.w.x	ft6,zero
    8000008c:	f00003d3          	fmv.w.x	ft7,zero
    80000090:	f0000453          	fmv.w.x	fs0,zero
    80000094:	f00004d3          	fmv.w.x	fs1,zero
    80000098:	f0000553          	fmv.w.x	fa0,zero
    8000009c:	f00005d3          	fmv.w.x	fa1,zero
    800000a0:	f0000653          	fmv.w.x	fa2,zero
    800000a4:	f00006d3          	fmv.w.x	fa3,zero
    800000a8:	f0000753          	fmv.w.x	fa4,zero
    800000ac:	f00007d3          	fmv.w.x	fa5,zero
    800000b0:	f0000853          	fmv.w.x	fa6,zero
    800000b4:	f00008d3          	fmv.w.x	fa7,zero
    800000b8:	f0000953          	fmv.w.x	fs2,zero
    800000bc:	f00009d3          	fmv.w.x	fs3,zero
    800000c0:	f0000a53          	fmv.w.x	fs4,zero
    800000c4:	f0000ad3          	fmv.w.x	fs5,zero
    800000c8:	f0000b53          	fmv.w.x	fs6,zero
    800000cc:	f0000bd3          	fmv.w.x	fs7,zero
    800000d0:	f0000c53          	fmv.w.x	fs8,zero
    800000d4:	f0000cd3          	fmv.w.x	fs9,zero
    800000d8:	f0000d53          	fmv.w.x	fs10,zero
    800000dc:	f0000dd3          	fmv.w.x	fs11,zero
    800000e0:	f0000e53          	fmv.w.x	ft8,zero
    800000e4:	f0000ed3          	fmv.w.x	ft9,zero
    800000e8:	f0000f53          	fmv.w.x	ft10,zero
    800000ec:	f0000fd3          	fmv.w.x	ft11,zero
    800000f0:	00000297          	auipc	t0,0x0
    800000f4:	03c28293          	add	t0,t0,60 # 8000012c <trap_entry>
    800000f8:	30529073          	csrw	mtvec,t0
    800000fc:	00004197          	auipc	gp,0x4
    80000100:	f4418193          	add	gp,gp,-188 # 80004040 <__global_pointer$>
    80000104:	00014217          	auipc	tp,0x14
    80000108:	fbb20213          	add	tp,tp,-69 # 800140bf <_end+0x3f>
    8000010c:	fc027213          	and	tp,tp,-64
    80000110:	f1402573          	csrr	a0,mhartid
    80000114:	4585                	li	a1,1
    80000116:	00b57063          	bgeu	a0,a1,80000116 <_start+0x116>
    8000011a:	00150113          	add	sp,a0,1
    8000011e:	0146                	sll	sp,sp,0x11
    80000120:	9112                	add	sp,sp,tp
    80000122:	01151613          	sll	a2,a0,0x11
    80000126:	9232                	add	tp,tp,a2
    80000128:	04a0206f          	j	80002172 <_init>

000000008000012c <trap_entry>:
    8000012c:	716d                	add	sp,sp,-272
    8000012e:	e406                	sd	ra,8(sp)
    80000130:	e80a                	sd	sp,16(sp)
    80000132:	ec0e                	sd	gp,24(sp)
    80000134:	f012                	sd	tp,32(sp)
    80000136:	f416                	sd	t0,40(sp)
    80000138:	f81a                	sd	t1,48(sp)
    8000013a:	fc1e                	sd	t2,56(sp)
    8000013c:	e0a2                	sd	s0,64(sp)
    8000013e:	e4a6                	sd	s1,72(sp)
    80000140:	e8aa                	sd	a0,80(sp)
    80000142:	ecae                	sd	a1,88(sp)
    80000144:	f0b2                	sd	a2,96(sp)
    80000146:	f4b6                	sd	a3,104(sp)
    80000148:	f8ba                	sd	a4,112(sp)
    8000014a:	fcbe                	sd	a5,120(sp)
    8000014c:	e142                	sd	a6,128(sp)
    8000014e:	e546                	sd	a7,136(sp)
    80000150:	e94a                	sd	s2,144(sp)
    80000152:	ed4e                	sd	s3,152(sp)
    80000154:	f152                	sd	s4,160(sp)
    80000156:	f556                	sd	s5,168(sp)
    80000158:	f95a                	sd	s6,176(sp)
    8000015a:	fd5e                	sd	s7,184(sp)
    8000015c:	e1e2                	sd	s8,192(sp)
    8000015e:	e5e6                	sd	s9,200(sp)
    80000160:	e9ea                	sd	s10,208(sp)
    80000162:	edee                	sd	s11,216(sp)
    80000164:	f1f2                	sd	t3,224(sp)
    80000166:	f5f6                	sd	t4,232(sp)
    80000168:	f9fa                	sd	t5,240(sp)
    8000016a:	fdfe                	sd	t6,248(sp)
    8000016c:	34202573          	csrr	a0,mcause
    80000170:	341025f3          	csrr	a1,mepc
    80000174:	860a                	mv	a2,sp
    80000176:	6fb010ef          	jal	80002070 <handle_trap>
    8000017a:	34151073          	csrw	mepc,a0
    8000017e:	6289                	lui	t0,0x2
    80000180:	8002829b          	addw	t0,t0,-2048 # 1800 <putchar.buflen+0x17c0>
    80000184:	3002a073          	csrs	mstatus,t0
    80000188:	60a2                	ld	ra,8(sp)
    8000018a:	6142                	ld	sp,16(sp)
    8000018c:	61e2                	ld	gp,24(sp)
    8000018e:	7202                	ld	tp,32(sp)
    80000190:	72a2                	ld	t0,40(sp)
    80000192:	7342                	ld	t1,48(sp)
    80000194:	73e2                	ld	t2,56(sp)
    80000196:	6406                	ld	s0,64(sp)
    80000198:	64a6                	ld	s1,72(sp)
    8000019a:	6546                	ld	a0,80(sp)
    8000019c:	65e6                	ld	a1,88(sp)
    8000019e:	7606                	ld	a2,96(sp)
    800001a0:	76a6                	ld	a3,104(sp)
    800001a2:	7746                	ld	a4,112(sp)
    800001a4:	77e6                	ld	a5,120(sp)
    800001a6:	680a                	ld	a6,128(sp)
    800001a8:	68aa                	ld	a7,136(sp)
    800001aa:	694a                	ld	s2,144(sp)
    800001ac:	69ea                	ld	s3,152(sp)
    800001ae:	7a0a                	ld	s4,160(sp)
    800001b0:	7aaa                	ld	s5,168(sp)
    800001b2:	7b4a                	ld	s6,176(sp)
    800001b4:	7bea                	ld	s7,184(sp)
    800001b6:	6c0e                	ld	s8,192(sp)
    800001b8:	6cae                	ld	s9,200(sp)
    800001ba:	6d4e                	ld	s10,208(sp)
    800001bc:	6dee                	ld	s11,216(sp)
    800001be:	7e0e                	ld	t3,224(sp)
    800001c0:	7eae                	ld	t4,232(sp)
    800001c2:	7f4e                	ld	t5,240(sp)
    800001c4:	7fee                	ld	t6,248(sp)
    800001c6:	6151                	add	sp,sp,272
    800001c8:	30200073          	mret

Disassembly of section .text:

0000000080002000 <setStats>:
    80002000:	b0002673          	csrr	a2,mcycle
    80002004:	00002597          	auipc	a1,0x2
    80002008:	85458593          	add	a1,a1,-1964 # 80003858 <counters.1>
    8000200c:	c911                	beqz	a0,80002020 <setStats+0x20>
    8000200e:	00002517          	auipc	a0,0x2
    80002012:	84250513          	add	a0,a0,-1982 # 80003850 <counters.0>
    80002016:	e110                	sd	a2,0(a0)
    80002018:	b0202573          	csrr	a0,minstret
    8000201c:	e188                	sd	a0,0(a1)
    8000201e:	8082                	ret
    80002020:	00002517          	auipc	a0,0x2
    80002024:	83050513          	add	a0,a0,-2000 # 80003850 <counters.0>
    80002028:	6114                	ld	a3,0(a0)
    8000202a:	8e15                	sub	a2,a2,a3
    8000202c:	00002697          	auipc	a3,0x2
    80002030:	83468693          	add	a3,a3,-1996 # 80003860 <counter_names.0>
    80002034:	00001717          	auipc	a4,0x1
    80002038:	56470713          	add	a4,a4,1380 # 80003598 <print_res+0x606>
    8000203c:	e298                	sd	a4,0(a3)
    8000203e:	e110                	sd	a2,0(a0)
    80002040:	b0202573          	csrr	a0,minstret
    80002044:	6190                	ld	a2,0(a1)
    80002046:	8d11                	sub	a0,a0,a2
    80002048:	00002617          	auipc	a2,0x2
    8000204c:	82060613          	add	a2,a2,-2016 # 80003868 <counter_names.1>
    80002050:	00001697          	auipc	a3,0x1
    80002054:	54f68693          	add	a3,a3,1359 # 8000359f <print_res+0x60d>
    80002058:	e214                	sd	a3,0(a2)
    8000205a:	e188                	sd	a0,0(a1)
    8000205c:	8082                	ret

000000008000205e <tohost_exit>:
    8000205e:	0506                	sll	a0,a0,0x1
    80002060:	00156513          	or	a0,a0,1
    80002064:	fffff597          	auipc	a1,0xfffff
    80002068:	f9c58593          	add	a1,a1,-100 # 80001000 <tohost>
    8000206c:	e188                	sd	a0,0(a1)
    8000206e:	a001                	j	8000206e <tohost_exit+0x10>

0000000080002070 <handle_trap>:
    80002070:	fffff517          	auipc	a0,0xfffff
    80002074:	f9050513          	add	a0,a0,-112 # 80001000 <tohost>
    80002078:	6585                	lui	a1,0x1
    8000207a:	a735859b          	addw	a1,a1,-1421 # a73 <putchar.buflen+0xa33>
    8000207e:	e10c                	sd	a1,0(a0)
    80002080:	a001                	j	80002080 <handle_trap+0x10>

0000000080002082 <exit>:
    80002082:	0506                	sll	a0,a0,0x1
    80002084:	00156513          	or	a0,a0,1
    80002088:	fffff597          	auipc	a1,0xfffff
    8000208c:	f7858593          	add	a1,a1,-136 # 80001000 <tohost>
    80002090:	e188                	sd	a0,0(a1)
    80002092:	a001                	j	80002092 <exit+0x10>

0000000080002094 <abort>:
    80002094:	fffff517          	auipc	a0,0xfffff
    80002098:	f6c50513          	add	a0,a0,-148 # 80001000 <tohost>
    8000209c:	10d00593          	li	a1,269
    800020a0:	e10c                	sd	a1,0(a0)
    800020a2:	a001                	j	800020a2 <abort+0xe>

00000000800020a4 <printstr>:
    800020a4:	7119                	add	sp,sp,-128
    800020a6:	fc86                	sd	ra,120(sp)
    800020a8:	f8a2                	sd	s0,112(sp)
    800020aa:	0100                	add	s0,sp,128
    800020ac:	fc017113          	and	sp,sp,-64
    800020b0:	4581                	li	a1,0
    800020b2:	00b50633          	add	a2,a0,a1
    800020b6:	00064603          	lbu	a2,0(a2)
    800020ba:	0585                	add	a1,a1,1
    800020bc:	fa7d                	bnez	a2,800020b2 <printstr+0xe>
    800020be:	15fd                	add	a1,a1,-1
    800020c0:	04000613          	li	a2,64
    800020c4:	e032                	sd	a2,0(sp)
    800020c6:	4605                	li	a2,1
    800020c8:	e432                	sd	a2,8(sp)
    800020ca:	e82a                	sd	a0,16(sp)
    800020cc:	ec2e                	sd	a1,24(sp)
    800020ce:	0330000f          	fence	rw,rw
    800020d2:	fffff517          	auipc	a0,0xfffff
    800020d6:	f2e50513          	add	a0,a0,-210 # 80001000 <tohost>
    800020da:	858a                	mv	a1,sp
    800020dc:	e10c                	sd	a1,0(a0)
    800020de:	fffff517          	auipc	a0,0xfffff
    800020e2:	f6250513          	add	a0,a0,-158 # 80001040 <fromhost>
    800020e6:	610c                	ld	a1,0(a0)
    800020e8:	ddfd                	beqz	a1,800020e6 <printstr+0x42>
    800020ea:	00053023          	sd	zero,0(a0)
    800020ee:	0330000f          	fence	rw,rw
    800020f2:	6502                	ld	a0,0(sp)
    800020f4:	f8040113          	add	sp,s0,-128
    800020f8:	70e6                	ld	ra,120(sp)
    800020fa:	7446                	ld	s0,112(sp)
    800020fc:	6109                	add	sp,sp,128
    800020fe:	8082                	ret

0000000080002100 <strlen>:
    80002100:	4581                	li	a1,0
    80002102:	00b50633          	add	a2,a0,a1
    80002106:	00064603          	lbu	a2,0(a2)
    8000210a:	0585                	add	a1,a1,1
    8000210c:	fa7d                	bnez	a2,80002102 <strlen+0x2>
    8000210e:	fff58513          	add	a0,a1,-1
    80002112:	8082                	ret

0000000080002114 <thread_entry>:
    80002114:	c111                	beqz	a0,80002118 <thread_entry+0x4>
    80002116:	a001                	j	80002116 <thread_entry+0x2>
    80002118:	8082                	ret
    8000211a:	7119                	add	sp,sp,-128
    8000211c:	fc86                	sd	ra,120(sp)
    8000211e:	f8a2                	sd	s0,112(sp)
    80002120:	0100                	add	s0,sp,128
    80002122:	fc017113          	and	sp,sp,-64
    80002126:	04000513          	li	a0,64
    8000212a:	e02a                	sd	a0,0(sp)
    8000212c:	4505                	li	a0,1
    8000212e:	e42a                	sd	a0,8(sp)
    80002130:	00001517          	auipc	a0,0x1
    80002134:	47850513          	add	a0,a0,1144 # 800035a8 <print_res+0x616>
    80002138:	e82a                	sd	a0,16(sp)
    8000213a:	455d                	li	a0,23
    8000213c:	ec2a                	sd	a0,24(sp)
    8000213e:	0330000f          	fence	rw,rw
    80002142:	fffff517          	auipc	a0,0xfffff
    80002146:	ebe50513          	add	a0,a0,-322 # 80001000 <tohost>
    8000214a:	858a                	mv	a1,sp
    8000214c:	e10c                	sd	a1,0(a0)
    8000214e:	fffff517          	auipc	a0,0xfffff
    80002152:	ef250513          	add	a0,a0,-270 # 80001040 <fromhost>
    80002156:	610c                	ld	a1,0(a0)
    80002158:	ddfd                	beqz	a1,80002156 <thread_entry+0x42>
    8000215a:	00053023          	sd	zero,0(a0)
    8000215e:	0330000f          	fence	rw,rw
    80002162:	6502                	ld	a0,0(sp)
    80002164:	557d                	li	a0,-1
    80002166:	f8040113          	add	sp,s0,-128
    8000216a:	70e6                	ld	ra,120(sp)
    8000216c:	7446                	ld	s0,112(sp)
    8000216e:	6109                	add	sp,sp,128
    80002170:	8082                	ret

0000000080002172 <_init>:
    80002172:	7111                	add	sp,sp,-256
    80002174:	fd86                	sd	ra,248(sp)
    80002176:	f9a2                	sd	s0,240(sp)
    80002178:	f5ca                	sd	s2,232(sp)
    8000217a:	f1ce                	sd	s3,224(sp)
    8000217c:	edd2                	sd	s4,216(sp)
    8000217e:	e9d6                	sd	s5,208(sp)
    80002180:	e5da                	sd	s6,200(sp)
    80002182:	0200                	add	s0,sp,256
    80002184:	fc017113          	and	sp,sp,-64
    80002188:	892e                	mv	s2,a1
    8000218a:	89aa                	mv	s3,a0
    8000218c:	de82                	sw	zero,124(sp)
    8000218e:	18e8                	add	a0,sp,124
    80002190:	40000593          	li	a1,1024
    80002194:	6599                	lui	a1,0x6
    80002196:	2005859b          	addw	a1,a1,512 # 6200 <putchar.buflen+0x61c0>
    8000219a:	30002073          	csrr	zero,mstatus
    8000219e:	ffffa037          	lui	zero,0xffffa
    800021a2:	9ff0001b          	addw	zero,zero,-1537
    800021a6:	00007033          	and	zero,zero,zero
    800021aa:	0005e033          	or	zero,a1,zero
    800021ae:	00052023          	sw	zero,0(a0)
    800021b2:	30001073          	csrw	mstatus,zero
    800021b6:	6519                	lui	a0,0x6
    800021b8:	6005051b          	addw	a0,a0,1536 # 6600 <putchar.buflen+0x65c0>
    800021bc:	30052073          	csrs	mstatus,a0
    800021c0:	04000293          	li	t0,64
    800021c4:	0c02f057          	vsetvli	zero,t0,e8,m1,ta,ma
    800021c8:	00301073          	fscsr	zero
    800021cc:	00006037          	lui	zero,0x6
    800021d0:	30002073          	csrr	zero,mstatus
    800021d4:	60000013          	li	zero,1536
    800021d8:	30002073          	csrr	zero,mstatus
    800021dc:	60000513          	li	a0,1536
    800021e0:	30052073          	csrs	mstatus,a0
    800021e4:	04000513          	li	a0,64
    800021e8:	0c057057          	vsetvli	zero,a0,e8,m1,ta,ma
    800021ec:	00301073          	fscsr	zero
    800021f0:	8a12                	mv	s4,tp
    800021f2:	00012597          	auipc	a1,0x12
    800021f6:	e8658593          	add	a1,a1,-378 # 80014078 <_tdata_begin>
    800021fa:	00012b17          	auipc	s6,0x12
    800021fe:	e7eb0b13          	add	s6,s6,-386 # 80014078 <_tdata_begin>
    80002202:	40bb0ab3          	sub	s5,s6,a1
    80002206:	8552                	mv	a0,s4
    80002208:	8656                	mv	a2,s5
    8000220a:	00001097          	auipc	ra,0x1
    8000220e:	9fa080e7          	jalr	-1542(ra) # 80002c04 <memcpy>
    80002212:	015a0533          	add	a0,s4,s5
    80002216:	00012597          	auipc	a1,0x12
    8000221a:	eae58593          	add	a1,a1,-338 # 800140c4 <_tbss_end>
    8000221e:	41658633          	sub	a2,a1,s6
    80002222:	4581                	li	a1,0
    80002224:	00001097          	auipc	ra,0x1
    80002228:	a24080e7          	jalr	-1500(ra) # 80002c48 <memset>
    8000222c:	854e                	mv	a0,s3
    8000222e:	85ca                	mv	a1,s2
    80002230:	00000097          	auipc	ra,0x0
    80002234:	ee4080e7          	jalr	-284(ra) # 80002114 <thread_entry>
    80002238:	4501                	li	a0,0
    8000223a:	4581                	li	a1,0
    8000223c:	00001097          	auipc	ra,0x1
    80002240:	b18080e7          	jalr	-1256(ra) # 80002d54 <main>
    80002244:	00001597          	auipc	a1,0x1
    80002248:	60c58593          	add	a1,a1,1548 # 80003850 <counters.0>
    8000224c:	6194                	ld	a3,0(a1)
    8000224e:	892a                	mv	s2,a0
    80002250:	c2dd                	beqz	a3,800022f6 <_init+0x184>
    80002252:	00001517          	auipc	a0,0x1
    80002256:	60e50513          	add	a0,a0,1550 # 80003860 <counter_names.0>
    8000225a:	6110                	ld	a2,0(a0)
    8000225c:	00001597          	auipc	a1,0x1
    80002260:	36458593          	add	a1,a1,868 # 800035c0 <print_res+0x62e>
    80002264:	850a                	mv	a0,sp
    80002266:	898a                	mv	s3,sp
    80002268:	00000097          	auipc	ra,0x0
    8000226c:	09e080e7          	jalr	158(ra) # 80002306 <sprintf>
    80002270:	99aa                	add	s3,s3,a0
    80002272:	00001517          	auipc	a0,0x1
    80002276:	5e650513          	add	a0,a0,1510 # 80003858 <counters.1>
    8000227a:	6114                	ld	a3,0(a0)
    8000227c:	c285                	beqz	a3,8000229c <_init+0x12a>
    8000227e:	00001517          	auipc	a0,0x1
    80002282:	5ea50513          	add	a0,a0,1514 # 80003868 <counter_names.1>
    80002286:	6110                	ld	a2,0(a0)
    80002288:	00001597          	auipc	a1,0x1
    8000228c:	33858593          	add	a1,a1,824 # 800035c0 <print_res+0x62e>
    80002290:	854e                	mv	a0,s3
    80002292:	00000097          	auipc	ra,0x0
    80002296:	074080e7          	jalr	116(ra) # 80002306 <sprintf>
    8000229a:	99aa                	add	s3,s3,a0
    8000229c:	858a                	mv	a1,sp
    8000229e:	fffff517          	auipc	a0,0xfffff
    800022a2:	d6250513          	add	a0,a0,-670 # 80001000 <tohost>
    800022a6:	04b98263          	beq	s3,a1,800022ea <_init+0x178>
    800022aa:	4601                	li	a2,0
    800022ac:	00c586b3          	add	a3,a1,a2
    800022b0:	0006c683          	lbu	a3,0(a3)
    800022b4:	0605                	add	a2,a2,1
    800022b6:	fafd                	bnez	a3,800022ac <_init+0x13a>
    800022b8:	fff60593          	add	a1,a2,-1
    800022bc:	04000613          	li	a2,64
    800022c0:	e132                	sd	a2,128(sp)
    800022c2:	4605                	li	a2,1
    800022c4:	e532                	sd	a2,136(sp)
    800022c6:	860a                	mv	a2,sp
    800022c8:	e932                	sd	a2,144(sp)
    800022ca:	ed2e                	sd	a1,152(sp)
    800022cc:	0330000f          	fence	rw,rw
    800022d0:	010c                	add	a1,sp,128
    800022d2:	e10c                	sd	a1,0(a0)
    800022d4:	fffff597          	auipc	a1,0xfffff
    800022d8:	d6c58593          	add	a1,a1,-660 # 80001040 <fromhost>
    800022dc:	6190                	ld	a2,0(a1)
    800022de:	de7d                	beqz	a2,800022dc <_init+0x16a>
    800022e0:	0005b023          	sd	zero,0(a1)
    800022e4:	0330000f          	fence	rw,rw
    800022e8:	658a                	ld	a1,128(sp)
    800022ea:	00191593          	sll	a1,s2,0x1
    800022ee:	0015e593          	or	a1,a1,1
    800022f2:	e10c                	sd	a1,0(a0)
    800022f4:	a001                	j	800022f4 <_init+0x182>
    800022f6:	898a                	mv	s3,sp
    800022f8:	00001517          	auipc	a0,0x1
    800022fc:	56050513          	add	a0,a0,1376 # 80003858 <counters.1>
    80002300:	6114                	ld	a3,0(a0)
    80002302:	feb5                	bnez	a3,8000227e <_init+0x10c>
    80002304:	bf61                	j	8000229c <_init+0x12a>

0000000080002306 <sprintf>:
    80002306:	7161                	add	sp,sp,-432
    80002308:	fe86                	sd	ra,376(sp)
    8000230a:	faa2                	sd	s0,368(sp)
    8000230c:	f6a6                	sd	s1,360(sp)
    8000230e:	f2ca                	sd	s2,352(sp)
    80002310:	eece                	sd	s3,344(sp)
    80002312:	ead2                	sd	s4,336(sp)
    80002314:	e6d6                	sd	s5,328(sp)
    80002316:	e2da                	sd	s6,320(sp)
    80002318:	fe5e                	sd	s7,312(sp)
    8000231a:	fa62                	sd	s8,304(sp)
    8000231c:	f666                	sd	s9,296(sp)
    8000231e:	f26a                	sd	s10,288(sp)
    80002320:	ee6e                	sd	s11,280(sp)
    80002322:	89ae                	mv	s3,a1
    80002324:	82aa                	mv	t0,a0
    80002326:	f746                	sd	a7,424(sp)
    80002328:	f342                	sd	a6,416(sp)
    8000232a:	ef3e                	sd	a5,408(sp)
    8000232c:	eb3a                	sd	a4,400(sp)
    8000232e:	e736                	sd	a3,392(sp)
    80002330:	e332                	sd	a2,384(sp)
    80002332:	18010393          	add	t2,sp,384
    80002336:	e81e                	sd	t2,16(sp)
    80002338:	01c10893          	add	a7,sp,28
    8000233c:	02500a93          	li	s5,37
    80002340:	05500313          	li	t1,85
    80002344:	4c29                	li	s8,10
    80002346:	0f600c93          	li	s9,246
    8000234a:	4e09                	li	t3,2
    8000234c:	02d00e93          	li	t4,45
    80002350:	01810f13          	add	t5,sp,24
    80002354:	4a25                	li	s4,9
    80002356:	4d05                	li	s10,1
    80002358:	03000f93          	li	t6,48
    8000235c:	07800093          	li	ra,120
    80002360:	842a                	mv	s0,a0
    80002362:	4b01                	li	s6,0
    80002364:	01698533          	add	a0,s3,s6
    80002368:	00054583          	lbu	a1,0(a0)
    8000236c:	2e058163          	beqz	a1,8000264e <sprintf+0x348>
    80002370:	01640db3          	add	s11,s0,s6
    80002374:	01558b63          	beq	a1,s5,8000238a <sprintf+0x84>
    80002378:	00bd8023          	sb	a1,0(s11)
    8000237c:	0b05                	add	s6,s6,1
    8000237e:	01698533          	add	a0,s3,s6
    80002382:	00054583          	lbu	a1,0(a0)
    80002386:	f5ed                	bnez	a1,80002370 <sprintf+0x6a>
    80002388:	a4d9                	j	8000264e <sprintf+0x348>
    8000238a:	4801                	li	a6,0
    8000238c:	00150693          	add	a3,a0,1
    80002390:	02000593          	li	a1,32
    80002394:	597d                	li	s2,-1
    80002396:	557d                	li	a0,-1
    80002398:	89b6                	mv	s3,a3
    8000239a:	0009c703          	lbu	a4,0(s3)
    8000239e:	fdd70493          	add	s1,a4,-35
    800023a2:	06936163          	bltu	t1,s1,80002404 <sprintf+0xfe>
    800023a6:	87ce                	mv	a5,s3
    800023a8:	048e                	sll	s1,s1,0x3
    800023aa:	00001617          	auipc	a2,0x1
    800023ae:	c7660613          	add	a2,a2,-906 # 80003020 <print_res+0x8e>
    800023b2:	9626                	add	a2,a2,s1
    800023b4:	6210                	ld	a2,0(a2)
    800023b6:	0985                	add	s3,s3,1
    800023b8:	8602                	jr	a2
    800023ba:	4901                	li	s2,0
    800023bc:	0ff77613          	zext.b	a2,a4
    800023c0:	0017c703          	lbu	a4,1(a5)
    800023c4:	0785                	add	a5,a5,1
    800023c6:	038904bb          	mulw	s1,s2,s8
    800023ca:	9e25                	addw	a2,a2,s1
    800023cc:	fc67049b          	addw	s1,a4,-58
    800023d0:	0ff4f493          	zext.b	s1,s1
    800023d4:	fd06091b          	addw	s2,a2,-48
    800023d8:	ff94f2e3          	bgeu	s1,s9,800023bc <sprintf+0xb6>
    800023dc:	89be                	mv	s3,a5
    800023de:	fa055ee3          	bgez	a0,8000239a <sprintf+0x94>
    800023e2:	854a                	mv	a0,s2
    800023e4:	597d                	li	s2,-1
    800023e6:	bf55                	j	8000239a <sprintf+0x94>
    800023e8:	85ba                	mv	a1,a4
    800023ea:	bf45                	j	8000239a <sprintf+0x94>
    800023ec:	0003a903          	lw	s2,0(t2)
    800023f0:	03a1                	add	t2,t2,8
    800023f2:	fa0554e3          	bgez	a0,8000239a <sprintf+0x94>
    800023f6:	b7f5                	j	800023e2 <sprintf+0xdc>
    800023f8:	faa041e3          	bgtz	a0,8000239a <sprintf+0x94>
    800023fc:	4501                	li	a0,0
    800023fe:	bf71                	j	8000239a <sprintf+0x94>
    80002400:	2805                	addw	a6,a6,1
    80002402:	bf61                	j	8000239a <sprintf+0x94>
    80002404:	015d8023          	sb	s5,0(s11)
    80002408:	001d8413          	add	s0,s11,1
    8000240c:	89b6                	mv	s3,a3
    8000240e:	bf91                	j	80002362 <sprintf+0x5c>
    80002410:	015d8023          	sb	s5,0(s11)
    80002414:	001d8413          	add	s0,s11,1
    80002418:	b7a9                	j	80002362 <sprintf+0x5c>
    8000241a:	00038503          	lb	a0,0(t2)
    8000241e:	03a1                	add	t2,t2,8
    80002420:	00ad8023          	sb	a0,0(s11)
    80002424:	001d8413          	add	s0,s11,1
    80002428:	bf2d                	j	80002362 <sprintf+0x5c>
    8000242a:	01c85463          	bge	a6,t3,80002432 <sprintf+0x12c>
    8000242e:	18080e63          	beqz	a6,800025ca <sprintf+0x2c4>
    80002432:	0003b603          	ld	a2,0(t2)
    80002436:	46a9                	li	a3,10
    80002438:	0c065d63          	bgez	a2,80002512 <sprintf+0x20c>
    8000243c:	01dd8023          	sb	t4,0(s11)
    80002440:	0d85                	add	s11,s11,1
    80002442:	40c00633          	neg	a2,a2
    80002446:	a0f1                	j	80002512 <sprintf+0x20c>
    80002448:	46a1                	li	a3,8
    8000244a:	0dc84063          	blt	a6,t3,8000250a <sprintf+0x204>
    8000244e:	a0c1                	j	8000250e <sprintf+0x208>
    80002450:	01fd8023          	sb	t6,0(s11)
    80002454:	001d80a3          	sb	ra,1(s11)
    80002458:	0d89                	add	s11,s11,2
    8000245a:	46c1                	li	a3,16
    8000245c:	a84d                	j	8000250e <sprintf+0x208>
    8000245e:	0003b483          	ld	s1,0(t2)
    80002462:	e489                	bnez	s1,8000246c <sprintf+0x166>
    80002464:	00001497          	auipc	s1,0x1
    80002468:	16648493          	add	s1,s1,358 # 800035ca <print_res+0x638>
    8000246c:	00a02633          	sgtz	a2,a0
    80002470:	0ff5f693          	zext.b	a3,a1
    80002474:	fd368693          	add	a3,a3,-45
    80002478:	00d036b3          	snez	a3,a3
    8000247c:	8e75                	and	a2,a2,a3
    8000247e:	14060063          	beqz	a2,800025be <sprintf+0x2b8>
    80002482:	8626                	mv	a2,s1
    80002484:	00090d63          	beqz	s2,8000249e <sprintf+0x198>
    80002488:	012486b3          	add	a3,s1,s2
    8000248c:	874a                	mv	a4,s2
    8000248e:	8626                	mv	a2,s1
    80002490:	00064783          	lbu	a5,0(a2)
    80002494:	c789                	beqz	a5,8000249e <sprintf+0x198>
    80002496:	177d                	add	a4,a4,-1
    80002498:	0605                	add	a2,a2,1
    8000249a:	fb7d                	bnez	a4,80002490 <sprintf+0x18a>
    8000249c:	8636                	mv	a2,a3
    8000249e:	40c486bb          	subw	a3,s1,a2
    800024a2:	00d50bbb          	addw	s7,a0,a3
    800024a6:	13705863          	blez	s7,800025d6 <sprintf+0x2d0>
    800024aa:	9d25                	addw	a0,a0,s1
    800024ac:	fff64613          	not	a2,a2
    800024b0:	9d31                	addw	a0,a0,a2
    800024b2:	1502                	sll	a0,a0,0x20
    800024b4:	9101                	srl	a0,a0,0x20
    800024b6:	e02a                	sd	a0,0(sp)
    800024b8:	00150613          	add	a2,a0,1
    800024bc:	856e                	mv	a0,s11
    800024be:	e416                	sd	t0,8(sp)
    800024c0:	8bc6                	mv	s7,a7
    800024c2:	8d9e                	mv	s11,t2
    800024c4:	00000097          	auipc	ra,0x0
    800024c8:	784080e7          	jalr	1924(ra) # 80002c48 <memset>
    800024cc:	07800093          	li	ra,120
    800024d0:	03000f93          	li	t6,48
    800024d4:	01810f13          	add	t5,sp,24
    800024d8:	02d00e93          	li	t4,45
    800024dc:	4e09                	li	t3,2
    800024de:	83ee                	mv	t2,s11
    800024e0:	05500313          	li	t1,85
    800024e4:	88de                	mv	a7,s7
    800024e6:	62a2                	ld	t0,8(sp)
    800024e8:	4b81                	li	s7,0
    800024ea:	6502                	ld	a0,0(sp)
    800024ec:	9522                	add	a0,a0,s0
    800024ee:	955a                	add	a0,a0,s6
    800024f0:	00150413          	add	s0,a0,1
    800024f4:	0004c503          	lbu	a0,0(s1)
    800024f8:	e17d                	bnez	a0,800025de <sprintf+0x2d8>
    800024fa:	a219                	j	80002600 <sprintf+0x2fa>
    800024fc:	46a9                	li	a3,10
    800024fe:	01c85863          	bge	a6,t3,8000250e <sprintf+0x208>
    80002502:	a021                	j	8000250a <sprintf+0x204>
    80002504:	46c1                	li	a3,16
    80002506:	01c85463          	bge	a6,t3,8000250e <sprintf+0x208>
    8000250a:	0a080763          	beqz	a6,800025b8 <sprintf+0x2b2>
    8000250e:	0003b603          	ld	a2,0(t2)
    80002512:	02d67733          	remu	a4,a2,a3
    80002516:	cc3a                	sw	a4,24(sp)
    80002518:	4485                	li	s1,1
    8000251a:	00d66d63          	bltu	a2,a3,80002534 <sprintf+0x22e>
    8000251e:	4485                	li	s1,1
    80002520:	8746                	mv	a4,a7
    80002522:	02d65633          	divu	a2,a2,a3
    80002526:	02d677b3          	remu	a5,a2,a3
    8000252a:	0485                	add	s1,s1,1
    8000252c:	c31c                	sw	a5,0(a4)
    8000252e:	0711                	add	a4,a4,4
    80002530:	fed679e3          	bgeu	a2,a3,80002522 <sprintf+0x21c>
    80002534:	0004861b          	sext.w	a2,s1
    80002538:	04a65463          	bge	a2,a0,80002580 <sprintf+0x27a>
    8000253c:	fff4c613          	not	a2,s1
    80002540:	9d31                	addw	a0,a0,a2
    80002542:	1502                	sll	a0,a0,0x20
    80002544:	02055413          	srl	s0,a0,0x20
    80002548:	00140613          	add	a2,s0,1
    8000254c:	856e                	mv	a0,s11
    8000254e:	8916                	mv	s2,t0
    80002550:	8b46                	mv	s6,a7
    80002552:	8b9e                	mv	s7,t2
    80002554:	00000097          	auipc	ra,0x0
    80002558:	6f4080e7          	jalr	1780(ra) # 80002c48 <memset>
    8000255c:	07800093          	li	ra,120
    80002560:	03000f93          	li	t6,48
    80002564:	01810f13          	add	t5,sp,24
    80002568:	02d00e93          	li	t4,45
    8000256c:	4e09                	li	t3,2
    8000256e:	83de                	mv	t2,s7
    80002570:	05500313          	li	t1,85
    80002574:	88da                	mv	a7,s6
    80002576:	82ca                	mv	t0,s2
    80002578:	008d8533          	add	a0,s11,s0
    8000257c:	00150d93          	add	s11,a0,1
    80002580:	03a1                	add	t2,t2,8
    80002582:	02049513          	sll	a0,s1,0x20
    80002586:	9101                	srl	a0,a0,0x20
    80002588:	846e                	mv	s0,s11
    8000258a:	a811                	j	8000259e <sprintf+0x298>
    8000258c:	9db1                	addw	a1,a1,a2
    8000258e:	00b40023          	sb	a1,0(s0)
    80002592:	0405                	add	s0,s0,1
    80002594:	0005059b          	sext.w	a1,a0
    80002598:	157d                	add	a0,a0,-1
    8000259a:	dcbd54e3          	bge	s10,a1,80002362 <sprintf+0x5c>
    8000259e:	34fd                	addw	s1,s1,-1
    800025a0:	02049593          	sll	a1,s1,0x20
    800025a4:	81f9                	srl	a1,a1,0x1e
    800025a6:	95fa                	add	a1,a1,t5
    800025a8:	418c                	lw	a1,0(a1)
    800025aa:	05700613          	li	a2,87
    800025ae:	fcba6fe3          	bltu	s4,a1,8000258c <sprintf+0x286>
    800025b2:	03000613          	li	a2,48
    800025b6:	bfd9                	j	8000258c <sprintf+0x286>
    800025b8:	0003e603          	lwu	a2,0(t2)
    800025bc:	bf99                	j	80002512 <sprintf+0x20c>
    800025be:	846e                	mv	s0,s11
    800025c0:	8baa                	mv	s7,a0
    800025c2:	0004c503          	lbu	a0,0(s1)
    800025c6:	ed01                	bnez	a0,800025de <sprintf+0x2d8>
    800025c8:	a825                	j	80002600 <sprintf+0x2fa>
    800025ca:	0003a603          	lw	a2,0(t2)
    800025ce:	46a9                	li	a3,10
    800025d0:	f40651e3          	bgez	a2,80002512 <sprintf+0x20c>
    800025d4:	b5a5                	j	8000243c <sprintf+0x136>
    800025d6:	846e                	mv	s0,s11
    800025d8:	0004c503          	lbu	a0,0(s1)
    800025dc:	c115                	beqz	a0,80002600 <sprintf+0x2fa>
    800025de:	00148593          	add	a1,s1,1
    800025e2:	a809                	j	800025f4 <sprintf+0x2ee>
    800025e4:	00a40023          	sb	a0,0(s0)
    800025e8:	0005c503          	lbu	a0,0(a1)
    800025ec:	0405                	add	s0,s0,1
    800025ee:	3bfd                	addw	s7,s7,-1
    800025f0:	0585                	add	a1,a1,1
    800025f2:	c519                	beqz	a0,80002600 <sprintf+0x2fa>
    800025f4:	fe0948e3          	bltz	s2,800025e4 <sprintf+0x2de>
    800025f8:	00090463          	beqz	s2,80002600 <sprintf+0x2fa>
    800025fc:	397d                	addw	s2,s2,-1
    800025fe:	b7dd                	j	800025e4 <sprintf+0x2de>
    80002600:	03a1                	add	t2,t2,8
    80002602:	d77050e3          	blez	s7,80002362 <sprintf+0x5c>
    80002606:	020b9513          	sll	a0,s7,0x20
    8000260a:	02055613          	srl	a2,a0,0x20
    8000260e:	02000593          	li	a1,32
    80002612:	8522                	mv	a0,s0
    80002614:	8916                	mv	s2,t0
    80002616:	84c6                	mv	s1,a7
    80002618:	8b1e                	mv	s6,t2
    8000261a:	00000097          	auipc	ra,0x0
    8000261e:	62e080e7          	jalr	1582(ra) # 80002c48 <memset>
    80002622:	07800093          	li	ra,120
    80002626:	03000f93          	li	t6,48
    8000262a:	01810f13          	add	t5,sp,24
    8000262e:	02d00e93          	li	t4,45
    80002632:	4e09                	li	t3,2
    80002634:	83da                	mv	t2,s6
    80002636:	05500313          	li	t1,85
    8000263a:	88a6                	mv	a7,s1
    8000263c:	82ca                	mv	t0,s2
    8000263e:	fffb851b          	addw	a0,s7,-1
    80002642:	1502                	sll	a0,a0,0x20
    80002644:	9101                	srl	a0,a0,0x20
    80002646:	9522                	add	a0,a0,s0
    80002648:	00150413          	add	s0,a0,1
    8000264c:	bb19                	j	80002362 <sprintf+0x5c>
    8000264e:	016405b3          	add	a1,s0,s6
    80002652:	4054053b          	subw	a0,s0,t0
    80002656:	0165053b          	addw	a0,a0,s6
    8000265a:	00058023          	sb	zero,0(a1)
    8000265e:	70f6                	ld	ra,376(sp)
    80002660:	7456                	ld	s0,368(sp)
    80002662:	74b6                	ld	s1,360(sp)
    80002664:	7916                	ld	s2,352(sp)
    80002666:	69f6                	ld	s3,344(sp)
    80002668:	6a56                	ld	s4,336(sp)
    8000266a:	6ab6                	ld	s5,328(sp)
    8000266c:	6b16                	ld	s6,320(sp)
    8000266e:	7bf2                	ld	s7,312(sp)
    80002670:	7c52                	ld	s8,304(sp)
    80002672:	7cb2                	ld	s9,296(sp)
    80002674:	7d12                	ld	s10,288(sp)
    80002676:	6df2                	ld	s11,280(sp)
    80002678:	615d                	add	sp,sp,432
    8000267a:	8082                	ret

000000008000267c <putchar>:
    8000267c:	7119                	add	sp,sp,-128
    8000267e:	fc86                	sd	ra,120(sp)
    80002680:	f8a2                	sd	s0,112(sp)
    80002682:	0100                	add	s0,sp,128
    80002684:	fc017113          	and	sp,sp,-64
    80002688:	000005b7          	lui	a1,0x0
    8000268c:	00458633          	add	a2,a1,tp
    80002690:	04062683          	lw	a3,64(a2)
    80002694:	0016859b          	addw	a1,a3,1
    80002698:	fc058713          	add	a4,a1,-64 # ffffffffffffffc0 <_tbss_end+0xffffffff7ffebefc>
    8000269c:	00173713          	seqz	a4,a4
    800026a0:	04b62023          	sw	a1,64(a2)
    800026a4:	ff650613          	add	a2,a0,-10
    800026a8:	00163613          	seqz	a2,a2
    800026ac:	8f51                	or	a4,a4,a2
    800026ae:	00000637          	lui	a2,0x0
    800026b2:	00460633          	add	a2,a2,tp
    800026b6:	00060613          	mv	a2,a2
    800026ba:	96b2                	add	a3,a3,a2
    800026bc:	00a68023          	sb	a0,0(a3)
    800026c0:	c329                	beqz	a4,80002702 <putchar+0x86>
    800026c2:	04000513          	li	a0,64
    800026c6:	e02a                	sd	a0,0(sp)
    800026c8:	4505                	li	a0,1
    800026ca:	e42a                	sd	a0,8(sp)
    800026cc:	e832                	sd	a2,16(sp)
    800026ce:	ec2e                	sd	a1,24(sp)
    800026d0:	0330000f          	fence	rw,rw
    800026d4:	fffff517          	auipc	a0,0xfffff
    800026d8:	92c50513          	add	a0,a0,-1748 # 80001000 <tohost>
    800026dc:	858a                	mv	a1,sp
    800026de:	e10c                	sd	a1,0(a0)
    800026e0:	fffff517          	auipc	a0,0xfffff
    800026e4:	96050513          	add	a0,a0,-1696 # 80001040 <fromhost>
    800026e8:	610c                	ld	a1,0(a0)
    800026ea:	ddfd                	beqz	a1,800026e8 <putchar+0x6c>
    800026ec:	00053023          	sd	zero,0(a0)
    800026f0:	0330000f          	fence	rw,rw
    800026f4:	6502                	ld	a0,0(sp)
    800026f6:	00000537          	lui	a0,0x0
    800026fa:	00450533          	add	a0,a0,tp
    800026fe:	04052023          	sw	zero,64(a0) # 40 <putchar.buflen>
    80002702:	4501                	li	a0,0
    80002704:	f8040113          	add	sp,s0,-128
    80002708:	70e6                	ld	ra,120(sp)
    8000270a:	7446                	ld	s0,112(sp)
    8000270c:	6109                	add	sp,sp,128
    8000270e:	8082                	ret

0000000080002710 <printhex>:
    80002710:	7131                	add	sp,sp,-192
    80002712:	fd06                	sd	ra,184(sp)
    80002714:	f922                	sd	s0,176(sp)
    80002716:	0180                	add	s0,sp,192
    80002718:	fc017113          	and	sp,sp,-64
    8000271c:	00f57693          	and	a3,a0,15
    80002720:	03000593          	li	a1,48
    80002724:	4629                	li	a2,10
    80002726:	03000713          	li	a4,48
    8000272a:	00c6e463          	bltu	a3,a2,80002732 <printhex+0x22>
    8000272e:	05700713          	li	a4,87
    80002732:	9eb9                	addw	a3,a3,a4
    80002734:	02d10f23          	sb	a3,62(sp)
    80002738:	00455693          	srl	a3,a0,0x4
    8000273c:	8abd                	and	a3,a3,15
    8000273e:	03000713          	li	a4,48
    80002742:	00c6e463          	bltu	a3,a2,8000274a <printhex+0x3a>
    80002746:	05700713          	li	a4,87
    8000274a:	9eb9                	addw	a3,a3,a4
    8000274c:	02d10ea3          	sb	a3,61(sp)
    80002750:	00855693          	srl	a3,a0,0x8
    80002754:	8abd                	and	a3,a3,15
    80002756:	03000713          	li	a4,48
    8000275a:	00c6e463          	bltu	a3,a2,80002762 <printhex+0x52>
    8000275e:	05700713          	li	a4,87
    80002762:	9eb9                	addw	a3,a3,a4
    80002764:	02d10e23          	sb	a3,60(sp)
    80002768:	00c55693          	srl	a3,a0,0xc
    8000276c:	8abd                	and	a3,a3,15
    8000276e:	03000713          	li	a4,48
    80002772:	00c6e463          	bltu	a3,a2,8000277a <printhex+0x6a>
    80002776:	05700713          	li	a4,87
    8000277a:	9eb9                	addw	a3,a3,a4
    8000277c:	02d10da3          	sb	a3,59(sp)
    80002780:	01055693          	srl	a3,a0,0x10
    80002784:	8abd                	and	a3,a3,15
    80002786:	03000713          	li	a4,48
    8000278a:	00c6e463          	bltu	a3,a2,80002792 <printhex+0x82>
    8000278e:	05700713          	li	a4,87
    80002792:	9eb9                	addw	a3,a3,a4
    80002794:	02d10d23          	sb	a3,58(sp)
    80002798:	01455693          	srl	a3,a0,0x14
    8000279c:	8abd                	and	a3,a3,15
    8000279e:	03000713          	li	a4,48
    800027a2:	00c6e463          	bltu	a3,a2,800027aa <printhex+0x9a>
    800027a6:	05700713          	li	a4,87
    800027aa:	9eb9                	addw	a3,a3,a4
    800027ac:	02d10ca3          	sb	a3,57(sp)
    800027b0:	01855693          	srl	a3,a0,0x18
    800027b4:	8abd                	and	a3,a3,15
    800027b6:	03000713          	li	a4,48
    800027ba:	00c6e463          	bltu	a3,a2,800027c2 <printhex+0xb2>
    800027be:	05700713          	li	a4,87
    800027c2:	9eb9                	addw	a3,a3,a4
    800027c4:	02d10c23          	sb	a3,56(sp)
    800027c8:	01c5569b          	srlw	a3,a0,0x1c
    800027cc:	03000713          	li	a4,48
    800027d0:	00c6e463          	bltu	a3,a2,800027d8 <printhex+0xc8>
    800027d4:	05700713          	li	a4,87
    800027d8:	9eb9                	addw	a3,a3,a4
    800027da:	02d10ba3          	sb	a3,55(sp)
    800027de:	02055693          	srl	a3,a0,0x20
    800027e2:	8abd                	and	a3,a3,15
    800027e4:	03000713          	li	a4,48
    800027e8:	00c6e463          	bltu	a3,a2,800027f0 <printhex+0xe0>
    800027ec:	05700713          	li	a4,87
    800027f0:	9eb9                	addw	a3,a3,a4
    800027f2:	02d10b23          	sb	a3,54(sp)
    800027f6:	02455693          	srl	a3,a0,0x24
    800027fa:	8abd                	and	a3,a3,15
    800027fc:	03000713          	li	a4,48
    80002800:	00c6e463          	bltu	a3,a2,80002808 <printhex+0xf8>
    80002804:	05700713          	li	a4,87
    80002808:	9eb9                	addw	a3,a3,a4
    8000280a:	02d10aa3          	sb	a3,53(sp)
    8000280e:	02855693          	srl	a3,a0,0x28
    80002812:	8abd                	and	a3,a3,15
    80002814:	03000713          	li	a4,48
    80002818:	00c6e463          	bltu	a3,a2,80002820 <printhex+0x110>
    8000281c:	05700713          	li	a4,87
    80002820:	9eb9                	addw	a3,a3,a4
    80002822:	02d10a23          	sb	a3,52(sp)
    80002826:	02c55693          	srl	a3,a0,0x2c
    8000282a:	8abd                	and	a3,a3,15
    8000282c:	03000713          	li	a4,48
    80002830:	00c6e463          	bltu	a3,a2,80002838 <printhex+0x128>
    80002834:	05700713          	li	a4,87
    80002838:	9eb9                	addw	a3,a3,a4
    8000283a:	02d109a3          	sb	a3,51(sp)
    8000283e:	03055693          	srl	a3,a0,0x30
    80002842:	8abd                	and	a3,a3,15
    80002844:	03000713          	li	a4,48
    80002848:	00c6e463          	bltu	a3,a2,80002850 <printhex+0x140>
    8000284c:	05700713          	li	a4,87
    80002850:	9eb9                	addw	a3,a3,a4
    80002852:	02d10923          	sb	a3,50(sp)
    80002856:	03455693          	srl	a3,a0,0x34
    8000285a:	8abd                	and	a3,a3,15
    8000285c:	03000713          	li	a4,48
    80002860:	00c6e463          	bltu	a3,a2,80002868 <printhex+0x158>
    80002864:	05700713          	li	a4,87
    80002868:	9eb9                	addw	a3,a3,a4
    8000286a:	02d108a3          	sb	a3,49(sp)
    8000286e:	03855693          	srl	a3,a0,0x38
    80002872:	8abd                	and	a3,a3,15
    80002874:	03000713          	li	a4,48
    80002878:	00c6e463          	bltu	a3,a2,80002880 <printhex+0x170>
    8000287c:	05700713          	li	a4,87
    80002880:	00d7063b          	addw	a2,a4,a3
    80002884:	02c10823          	sb	a2,48(sp)
    80002888:	03d55613          	srl	a2,a0,0x3d
    8000288c:	4695                	li	a3,5
    8000288e:	9171                	srl	a0,a0,0x3c
    80002890:	00d66463          	bltu	a2,a3,80002898 <printhex+0x188>
    80002894:	05700593          	li	a1,87
    80002898:	952e                	add	a0,a0,a1
    8000289a:	02a107a3          	sb	a0,47(sp)
    8000289e:	02010fa3          	sb	zero,63(sp)
    800028a2:	c901                	beqz	a0,800028b2 <printhex+0x1a2>
    800028a4:	02f10513          	add	a0,sp,47
    800028a8:	00154583          	lbu	a1,1(a0)
    800028ac:	0505                	add	a0,a0,1
    800028ae:	fded                	bnez	a1,800028a8 <printhex+0x198>
    800028b0:	a019                	j	800028b6 <printhex+0x1a6>
    800028b2:	02f10513          	add	a0,sp,47
    800028b6:	02f10593          	add	a1,sp,47
    800028ba:	8d0d                	sub	a0,a0,a1
    800028bc:	04000613          	li	a2,64
    800028c0:	e0b2                	sd	a2,64(sp)
    800028c2:	4605                	li	a2,1
    800028c4:	e4b2                	sd	a2,72(sp)
    800028c6:	e8ae                	sd	a1,80(sp)
    800028c8:	ecaa                	sd	a0,88(sp)
    800028ca:	0330000f          	fence	rw,rw
    800028ce:	ffffe517          	auipc	a0,0xffffe
    800028d2:	73250513          	add	a0,a0,1842 # 80001000 <tohost>
    800028d6:	008c                	add	a1,sp,64
    800028d8:	e10c                	sd	a1,0(a0)
    800028da:	ffffe517          	auipc	a0,0xffffe
    800028de:	76650513          	add	a0,a0,1894 # 80001040 <fromhost>
    800028e2:	610c                	ld	a1,0(a0)
    800028e4:	ddfd                	beqz	a1,800028e2 <printhex+0x1d2>
    800028e6:	00053023          	sd	zero,0(a0)
    800028ea:	0330000f          	fence	rw,rw
    800028ee:	6506                	ld	a0,64(sp)
    800028f0:	f4040113          	add	sp,s0,-192
    800028f4:	70ea                	ld	ra,184(sp)
    800028f6:	744a                	ld	s0,176(sp)
    800028f8:	6129                	add	sp,sp,192
    800028fa:	8082                	ret

00000000800028fc <printf>:
    800028fc:	7121                	add	sp,sp,-448
    800028fe:	fe86                	sd	ra,376(sp)
    80002900:	faa2                	sd	s0,368(sp)
    80002902:	f6a6                	sd	s1,360(sp)
    80002904:	f2ca                	sd	s2,352(sp)
    80002906:	eece                	sd	s3,344(sp)
    80002908:	ead2                	sd	s4,336(sp)
    8000290a:	e6d6                	sd	s5,328(sp)
    8000290c:	e2da                	sd	s6,320(sp)
    8000290e:	fe5e                	sd	s7,312(sp)
    80002910:	fa62                	sd	s8,304(sp)
    80002912:	f666                	sd	s9,296(sp)
    80002914:	f26a                	sd	s10,288(sp)
    80002916:	ee6e                	sd	s11,280(sp)
    80002918:	8b2a                	mv	s6,a0
    8000291a:	ff46                	sd	a7,440(sp)
    8000291c:	fb42                	sd	a6,432(sp)
    8000291e:	f73e                	sd	a5,424(sp)
    80002920:	f33a                	sd	a4,416(sp)
    80002922:	ef36                	sd	a3,408(sp)
    80002924:	eb32                	sd	a2,400(sp)
    80002926:	e72e                	sd	a1,392(sp)
    80002928:	032c                	add	a1,sp,392
    8000292a:	0328                	add	a0,sp,392
    8000292c:	e42a                	sd	a0,8(sp)
    8000292e:	e82e                	sd	a1,16(sp)
    80002930:	02500993          	li	s3,37
    80002934:	05500493          	li	s1,85
    80002938:	00001a97          	auipc	s5,0x1
    8000293c:	998a8a93          	add	s5,s5,-1640 # 800032d0 <print_res+0x33e>
    80002940:	4ba9                	li	s7,10
    80002942:	0f600c13          	li	s8,246
    80002946:	01810d13          	add	s10,sp,24
    8000294a:	4da5                	li	s11,9
    8000294c:	4905                	li	s2,1
    8000294e:	001b0413          	add	s0,s6,1
    80002952:	fff44503          	lbu	a0,-1(s0)
    80002956:	28050063          	beqz	a0,80002bd6 <printf+0x2da>
    8000295a:	01350b63          	beq	a0,s3,80002970 <printf+0x74>
    8000295e:	00000097          	auipc	ra,0x0
    80002962:	d1e080e7          	jalr	-738(ra) # 8000267c <putchar>
    80002966:	0405                	add	s0,s0,1
    80002968:	fff44503          	lbu	a0,-1(s0)
    8000296c:	f57d                	bnez	a0,8000295a <printf+0x5e>
    8000296e:	a4a5                	j	80002bd6 <printf+0x2da>
    80002970:	4501                	li	a0,0
    80002972:	02000793          	li	a5,32
    80002976:	5cfd                	li	s9,-1
    80002978:	5a7d                	li	s4,-1
    8000297a:	8b22                	mv	s6,s0
    8000297c:	000b4583          	lbu	a1,0(s6)
    80002980:	fdd58693          	add	a3,a1,-35
    80002984:	04d4ef63          	bltu	s1,a3,800029e2 <printf+0xe6>
    80002988:	865a                	mv	a2,s6
    8000298a:	068e                	sll	a3,a3,0x3
    8000298c:	96d6                	add	a3,a3,s5
    8000298e:	6294                	ld	a3,0(a3)
    80002990:	0b05                	add	s6,s6,1
    80002992:	8682                	jr	a3
    80002994:	4c81                	li	s9,0
    80002996:	0ff5f693          	zext.b	a3,a1
    8000299a:	00164583          	lbu	a1,1(a2) # 1 <putchar.buf+0x1>
    8000299e:	0605                	add	a2,a2,1
    800029a0:	037c873b          	mulw	a4,s9,s7
    800029a4:	9eb9                	addw	a3,a3,a4
    800029a6:	fc65871b          	addw	a4,a1,-58
    800029aa:	0ff77713          	zext.b	a4,a4
    800029ae:	fd068c9b          	addw	s9,a3,-48
    800029b2:	ff8772e3          	bgeu	a4,s8,80002996 <printf+0x9a>
    800029b6:	8b32                	mv	s6,a2
    800029b8:	fc0a52e3          	bgez	s4,8000297c <printf+0x80>
    800029bc:	8a66                	mv	s4,s9
    800029be:	5cfd                	li	s9,-1
    800029c0:	bf75                	j	8000297c <printf+0x80>
    800029c2:	87ae                	mv	a5,a1
    800029c4:	bf65                	j	8000297c <printf+0x80>
    800029c6:	65a2                	ld	a1,8(sp)
    800029c8:	0005ac83          	lw	s9,0(a1)
    800029cc:	05a1                	add	a1,a1,8
    800029ce:	e42e                	sd	a1,8(sp)
    800029d0:	fa0a56e3          	bgez	s4,8000297c <printf+0x80>
    800029d4:	b7e5                	j	800029bc <printf+0xc0>
    800029d6:	fb4043e3          	bgtz	s4,8000297c <printf+0x80>
    800029da:	4a01                	li	s4,0
    800029dc:	b745                	j	8000297c <printf+0x80>
    800029de:	2505                	addw	a0,a0,1
    800029e0:	bf71                	j	8000297c <printf+0x80>
    800029e2:	02500513          	li	a0,37
    800029e6:	00000097          	auipc	ra,0x0
    800029ea:	c96080e7          	jalr	-874(ra) # 8000267c <putchar>
    800029ee:	8b22                	mv	s6,s0
    800029f0:	bfb9                	j	8000294e <printf+0x52>
    800029f2:	02500513          	li	a0,37
    800029f6:	00000097          	auipc	ra,0x0
    800029fa:	c86080e7          	jalr	-890(ra) # 8000267c <putchar>
    800029fe:	bf81                	j	8000294e <printf+0x52>
    80002a00:	65a2                	ld	a1,8(sp)
    80002a02:	4188                	lw	a0,0(a1)
    80002a04:	00858413          	add	s0,a1,8
    80002a08:	00000097          	auipc	ra,0x0
    80002a0c:	c74080e7          	jalr	-908(ra) # 8000267c <putchar>
    80002a10:	e422                	sd	s0,8(sp)
    80002a12:	bf35                	j	8000294e <printf+0x52>
    80002a14:	4589                	li	a1,2
    80002a16:	00b55463          	bge	a0,a1,80002a1e <printf+0x122>
    80002a1a:	1a050863          	beqz	a0,80002bca <printf+0x2ce>
    80002a1e:	6522                	ld	a0,8(sp)
    80002a20:	6100                	ld	s0,0(a0)
    80002a22:	4ca9                	li	s9,10
    80002a24:	0c045563          	bgez	s0,80002aee <printf+0x1f2>
    80002a28:	02d00513          	li	a0,45
    80002a2c:	84be                	mv	s1,a5
    80002a2e:	00000097          	auipc	ra,0x0
    80002a32:	c4e080e7          	jalr	-946(ra) # 8000267c <putchar>
    80002a36:	87a6                	mv	a5,s1
    80002a38:	40800433          	neg	s0,s0
    80002a3c:	a84d                	j	80002aee <printf+0x1f2>
    80002a3e:	4ca1                	li	s9,8
    80002a40:	4589                	li	a1,2
    80002a42:	0ab54363          	blt	a0,a1,80002ae8 <printf+0x1ec>
    80002a46:	a055                	j	80002aea <printf+0x1ee>
    80002a48:	03000513          	li	a0,48
    80002a4c:	843e                	mv	s0,a5
    80002a4e:	00000097          	auipc	ra,0x0
    80002a52:	c2e080e7          	jalr	-978(ra) # 8000267c <putchar>
    80002a56:	07800513          	li	a0,120
    80002a5a:	00000097          	auipc	ra,0x0
    80002a5e:	c22080e7          	jalr	-990(ra) # 8000267c <putchar>
    80002a62:	87a2                	mv	a5,s0
    80002a64:	4cc1                	li	s9,16
    80002a66:	a051                	j	80002aea <printf+0x1ee>
    80002a68:	6522                	ld	a0,8(sp)
    80002a6a:	6118                	ld	a4,0(a0)
    80002a6c:	e709                	bnez	a4,80002a76 <printf+0x17a>
    80002a6e:	00001717          	auipc	a4,0x1
    80002a72:	b5c70713          	add	a4,a4,-1188 # 800035ca <print_res+0x638>
    80002a76:	01402533          	sgtz	a0,s4
    80002a7a:	0ff7f493          	zext.b	s1,a5
    80002a7e:	fd348593          	add	a1,s1,-45
    80002a82:	00b035b3          	snez	a1,a1
    80002a86:	8d6d                	and	a0,a0,a1
    80002a88:	c565                	beqz	a0,80002b70 <printf+0x274>
    80002a8a:	853a                	mv	a0,a4
    80002a8c:	000c8d63          	beqz	s9,80002aa6 <printf+0x1aa>
    80002a90:	019705b3          	add	a1,a4,s9
    80002a94:	8666                	mv	a2,s9
    80002a96:	853a                	mv	a0,a4
    80002a98:	00054683          	lbu	a3,0(a0)
    80002a9c:	c689                	beqz	a3,80002aa6 <printf+0x1aa>
    80002a9e:	167d                	add	a2,a2,-1
    80002aa0:	0505                	add	a0,a0,1
    80002aa2:	fa7d                	bnez	a2,80002a98 <printf+0x19c>
    80002aa4:	852e                	mv	a0,a1
    80002aa6:	40a7053b          	subw	a0,a4,a0
    80002aaa:	00aa0a3b          	addw	s4,s4,a0
    80002aae:	0d405163          	blez	s4,80002b70 <printf+0x274>
    80002ab2:	e03a                	sd	a4,0(sp)
    80002ab4:	8452                	mv	s0,s4
    80002ab6:	8526                	mv	a0,s1
    80002ab8:	00000097          	auipc	ra,0x0
    80002abc:	bc4080e7          	jalr	-1084(ra) # 8000267c <putchar>
    80002ac0:	3a7d                	addw	s4,s4,-1
    80002ac2:	fe8969e3          	bltu	s2,s0,80002ab4 <printf+0x1b8>
    80002ac6:	4a01                	li	s4,0
    80002ac8:	05500493          	li	s1,85
    80002acc:	6702                	ld	a4,0(sp)
    80002ace:	00074503          	lbu	a0,0(a4)
    80002ad2:	e545                	bnez	a0,80002b7a <printf+0x27e>
    80002ad4:	a0f9                	j	80002ba2 <printf+0x2a6>
    80002ad6:	4ca9                	li	s9,10
    80002ad8:	4589                	li	a1,2
    80002ada:	00b54763          	blt	a0,a1,80002ae8 <printf+0x1ec>
    80002ade:	a031                	j	80002aea <printf+0x1ee>
    80002ae0:	4cc1                	li	s9,16
    80002ae2:	4589                	li	a1,2
    80002ae4:	00b55363          	bge	a0,a1,80002aea <printf+0x1ee>
    80002ae8:	cd69                	beqz	a0,80002bc2 <printf+0x2c6>
    80002aea:	6522                	ld	a0,8(sp)
    80002aec:	6100                	ld	s0,0(a0)
    80002aee:	03947533          	remu	a0,s0,s9
    80002af2:	cc2a                	sw	a0,24(sp)
    80002af4:	4485                	li	s1,1
    80002af6:	01946d63          	bltu	s0,s9,80002b10 <printf+0x214>
    80002afa:	4485                	li	s1,1
    80002afc:	0868                	add	a0,sp,28
    80002afe:	03945433          	divu	s0,s0,s9
    80002b02:	039475b3          	remu	a1,s0,s9
    80002b06:	0485                	add	s1,s1,1
    80002b08:	c10c                	sw	a1,0(a0)
    80002b0a:	0511                	add	a0,a0,4
    80002b0c:	ff9479e3          	bgeu	s0,s9,80002afe <printf+0x202>
    80002b10:	0004841b          	sext.w	s0,s1
    80002b14:	01445c63          	bge	s0,s4,80002b2c <printf+0x230>
    80002b18:	0ff7fc93          	zext.b	s9,a5
    80002b1c:	3a7d                	addw	s4,s4,-1
    80002b1e:	8566                	mv	a0,s9
    80002b20:	00000097          	auipc	ra,0x0
    80002b24:	b5c080e7          	jalr	-1188(ra) # 8000267c <putchar>
    80002b28:	ff444ae3          	blt	s0,s4,80002b1c <printf+0x220>
    80002b2c:	6522                	ld	a0,8(sp)
    80002b2e:	0521                	add	a0,a0,8
    80002b30:	e42a                	sd	a0,8(sp)
    80002b32:	02049513          	sll	a0,s1,0x20
    80002b36:	02055413          	srl	s0,a0,0x20
    80002b3a:	a819                	j	80002b50 <printf+0x254>
    80002b3c:	9d2d                	addw	a0,a0,a1
    80002b3e:	00000097          	auipc	ra,0x0
    80002b42:	b3e080e7          	jalr	-1218(ra) # 8000267c <putchar>
    80002b46:	0004051b          	sext.w	a0,s0
    80002b4a:	147d                	add	s0,s0,-1
    80002b4c:	00a95f63          	bge	s2,a0,80002b6a <printf+0x26e>
    80002b50:	34fd                	addw	s1,s1,-1
    80002b52:	02049513          	sll	a0,s1,0x20
    80002b56:	8179                	srl	a0,a0,0x1e
    80002b58:	956a                	add	a0,a0,s10
    80002b5a:	4108                	lw	a0,0(a0)
    80002b5c:	05700593          	li	a1,87
    80002b60:	fcadeee3          	bltu	s11,a0,80002b3c <printf+0x240>
    80002b64:	03000593          	li	a1,48
    80002b68:	bfd1                	j	80002b3c <printf+0x240>
    80002b6a:	05500493          	li	s1,85
    80002b6e:	b3c5                	j	8000294e <printf+0x52>
    80002b70:	05500493          	li	s1,85
    80002b74:	00074503          	lbu	a0,0(a4)
    80002b78:	c50d                	beqz	a0,80002ba2 <printf+0x2a6>
    80002b7a:	00170413          	add	s0,a4,1
    80002b7e:	a821                	j	80002b96 <printf+0x29a>
    80002b80:	0ff57513          	zext.b	a0,a0
    80002b84:	00000097          	auipc	ra,0x0
    80002b88:	af8080e7          	jalr	-1288(ra) # 8000267c <putchar>
    80002b8c:	00044503          	lbu	a0,0(s0)
    80002b90:	3a7d                	addw	s4,s4,-1
    80002b92:	0405                	add	s0,s0,1
    80002b94:	c519                	beqz	a0,80002ba2 <printf+0x2a6>
    80002b96:	fe0cc5e3          	bltz	s9,80002b80 <printf+0x284>
    80002b9a:	000c8463          	beqz	s9,80002ba2 <printf+0x2a6>
    80002b9e:	3cfd                	addw	s9,s9,-1
    80002ba0:	b7c5                	j	80002b80 <printf+0x284>
    80002ba2:	6522                	ld	a0,8(sp)
    80002ba4:	0521                	add	a0,a0,8
    80002ba6:	e42a                	sd	a0,8(sp)
    80002ba8:	db4053e3          	blez	s4,8000294e <printf+0x52>
    80002bac:	8452                	mv	s0,s4
    80002bae:	02000513          	li	a0,32
    80002bb2:	00000097          	auipc	ra,0x0
    80002bb6:	aca080e7          	jalr	-1334(ra) # 8000267c <putchar>
    80002bba:	3a7d                	addw	s4,s4,-1
    80002bbc:	fe8968e3          	bltu	s2,s0,80002bac <printf+0x2b0>
    80002bc0:	b379                	j	8000294e <printf+0x52>
    80002bc2:	6522                	ld	a0,8(sp)
    80002bc4:	00056403          	lwu	s0,0(a0)
    80002bc8:	b71d                	j	80002aee <printf+0x1f2>
    80002bca:	6522                	ld	a0,8(sp)
    80002bcc:	4100                	lw	s0,0(a0)
    80002bce:	4ca9                	li	s9,10
    80002bd0:	f0045fe3          	bgez	s0,80002aee <printf+0x1f2>
    80002bd4:	bd91                	j	80002a28 <printf+0x12c>
    80002bd6:	4501                	li	a0,0
    80002bd8:	70f6                	ld	ra,376(sp)
    80002bda:	7456                	ld	s0,368(sp)
    80002bdc:	74b6                	ld	s1,360(sp)
    80002bde:	7916                	ld	s2,352(sp)
    80002be0:	69f6                	ld	s3,344(sp)
    80002be2:	6a56                	ld	s4,336(sp)
    80002be4:	6ab6                	ld	s5,328(sp)
    80002be6:	6b16                	ld	s6,320(sp)
    80002be8:	7bf2                	ld	s7,312(sp)
    80002bea:	7c52                	ld	s8,304(sp)
    80002bec:	7cb2                	ld	s9,296(sp)
    80002bee:	7d12                	ld	s10,288(sp)
    80002bf0:	6df2                	ld	s11,280(sp)
    80002bf2:	6139                	add	sp,sp,448
    80002bf4:	8082                	ret

0000000080002bf6 <sprintf_putch>:
    80002bf6:	6190                	ld	a2,0(a1)
    80002bf8:	00a60023          	sb	a0,0(a2)
    80002bfc:	6188                	ld	a0,0(a1)
    80002bfe:	0505                	add	a0,a0,1
    80002c00:	e188                	sd	a0,0(a1)
    80002c02:	8082                	ret

0000000080002c04 <memcpy>:
    80002c04:	00a5e6b3          	or	a3,a1,a0
    80002c08:	8ed1                	or	a3,a3,a2
    80002c0a:	0076f713          	and	a4,a3,7
    80002c0e:	00c506b3          	add	a3,a0,a2
    80002c12:	cf19                	beqz	a4,80002c30 <memcpy+0x2c>
    80002c14:	02d57963          	bgeu	a0,a3,80002c46 <memcpy+0x42>
    80002c18:	86aa                	mv	a3,a0
    80002c1a:	00058703          	lb	a4,0(a1)
    80002c1e:	0585                	add	a1,a1,1
    80002c20:	00168793          	add	a5,a3,1
    80002c24:	167d                	add	a2,a2,-1
    80002c26:	00e68023          	sb	a4,0(a3)
    80002c2a:	86be                	mv	a3,a5
    80002c2c:	f67d                	bnez	a2,80002c1a <memcpy+0x16>
    80002c2e:	a821                	j	80002c46 <memcpy+0x42>
    80002c30:	00d57b63          	bgeu	a0,a3,80002c46 <memcpy+0x42>
    80002c34:	862a                	mv	a2,a0
    80002c36:	6198                	ld	a4,0(a1)
    80002c38:	05a1                	add	a1,a1,8
    80002c3a:	00860793          	add	a5,a2,8
    80002c3e:	e218                	sd	a4,0(a2)
    80002c40:	863e                	mv	a2,a5
    80002c42:	fed7eae3          	bltu	a5,a3,80002c36 <memcpy+0x32>
    80002c46:	8082                	ret

0000000080002c48 <memset>:
    80002c48:	00c566b3          	or	a3,a0,a2
    80002c4c:	8a9d                	and	a3,a3,7
    80002c4e:	ce91                	beqz	a3,80002c6a <memset+0x22>
    80002c50:	00c506b3          	add	a3,a0,a2
    80002c54:	04d57063          	bgeu	a0,a3,80002c94 <memset+0x4c>
    80002c58:	86aa                	mv	a3,a0
    80002c5a:	00168713          	add	a4,a3,1
    80002c5e:	167d                	add	a2,a2,-1
    80002c60:	00b68023          	sb	a1,0(a3)
    80002c64:	86ba                	mv	a3,a4
    80002c66:	fa75                	bnez	a2,80002c5a <memset+0x12>
    80002c68:	a035                	j	80002c94 <memset+0x4c>
    80002c6a:	962a                	add	a2,a2,a0
    80002c6c:	02c57463          	bgeu	a0,a2,80002c94 <memset+0x4c>
    80002c70:	0ff5f593          	zext.b	a1,a1
    80002c74:	010106b7          	lui	a3,0x1010
    80002c78:	1016869b          	addw	a3,a3,257 # 1010101 <putchar.buflen+0x10100c1>
    80002c7c:	02d585b3          	mul	a1,a1,a3
    80002c80:	02059693          	sll	a3,a1,0x20
    80002c84:	8dd5                	or	a1,a1,a3
    80002c86:	86aa                	mv	a3,a0
    80002c88:	00868713          	add	a4,a3,8
    80002c8c:	e28c                	sd	a1,0(a3)
    80002c8e:	86ba                	mv	a3,a4
    80002c90:	fec76ce3          	bltu	a4,a2,80002c88 <memset+0x40>
    80002c94:	8082                	ret

0000000080002c96 <strnlen>:
    80002c96:	862a                	mv	a2,a0
    80002c98:	c999                	beqz	a1,80002cae <strnlen+0x18>
    80002c9a:	00b506b3          	add	a3,a0,a1
    80002c9e:	862a                	mv	a2,a0
    80002ca0:	00064703          	lbu	a4,0(a2)
    80002ca4:	c709                	beqz	a4,80002cae <strnlen+0x18>
    80002ca6:	15fd                	add	a1,a1,-1
    80002ca8:	0605                	add	a2,a2,1
    80002caa:	f9fd                	bnez	a1,80002ca0 <strnlen+0xa>
    80002cac:	8636                	mv	a2,a3
    80002cae:	40a60533          	sub	a0,a2,a0
    80002cb2:	8082                	ret

0000000080002cb4 <strcmp>:
    80002cb4:	00054603          	lbu	a2,0(a0)
    80002cb8:	0005c683          	lbu	a3,0(a1)
    80002cbc:	0505                	add	a0,a0,1
    80002cbe:	0585                	add	a1,a1,1
    80002cc0:	00c03733          	snez	a4,a2
    80002cc4:	00d647b3          	xor	a5,a2,a3
    80002cc8:	0017b793          	seqz	a5,a5
    80002ccc:	8f7d                	and	a4,a4,a5
    80002cce:	f37d                	bnez	a4,80002cb4 <strcmp>
    80002cd0:	40d60533          	sub	a0,a2,a3
    80002cd4:	8082                	ret

0000000080002cd6 <strcpy>:
    80002cd6:	4601                	li	a2,0
    80002cd8:	00c586b3          	add	a3,a1,a2
    80002cdc:	0006c683          	lbu	a3,0(a3)
    80002ce0:	00c50733          	add	a4,a0,a2
    80002ce4:	00d70023          	sb	a3,0(a4)
    80002ce8:	0605                	add	a2,a2,1
    80002cea:	f6fd                	bnez	a3,80002cd8 <strcpy+0x2>
    80002cec:	8082                	ret

0000000080002cee <atol>:
    80002cee:	00150613          	add	a2,a0,1
    80002cf2:	02000513          	li	a0,32
    80002cf6:	fff64583          	lbu	a1,-1(a2)
    80002cfa:	00a59763          	bne	a1,a0,80002d08 <atol+0x1a>
    80002cfe:	0605                	add	a2,a2,1
    80002d00:	fff64583          	lbu	a1,-1(a2)
    80002d04:	fea58de3          	beq	a1,a0,80002cfe <atol+0x10>
    80002d08:	02b00513          	li	a0,43
    80002d0c:	00a58663          	beq	a1,a0,80002d18 <atol+0x2a>
    80002d10:	02d00513          	li	a0,45
    80002d14:	00a59b63          	bne	a1,a0,80002d2a <atol+0x3c>
    80002d18:	fd358513          	add	a0,a1,-45
    80002d1c:	00064583          	lbu	a1,0(a2)
    80002d20:	00153693          	seqz	a3,a0
    80002d24:	4501                	li	a0,0
    80002d26:	e591                	bnez	a1,80002d32 <atol+0x44>
    80002d28:	a015                	j	80002d4c <atol+0x5e>
    80002d2a:	4681                	li	a3,0
    80002d2c:	167d                	add	a2,a2,-1
    80002d2e:	4501                	li	a0,0
    80002d30:	cd91                	beqz	a1,80002d4c <atol+0x5e>
    80002d32:	0605                	add	a2,a2,1
    80002d34:	4729                	li	a4,10
    80002d36:	0ff5f793          	zext.b	a5,a1
    80002d3a:	00064583          	lbu	a1,0(a2)
    80002d3e:	02e50533          	mul	a0,a0,a4
    80002d42:	953e                	add	a0,a0,a5
    80002d44:	fd050513          	add	a0,a0,-48
    80002d48:	0605                	add	a2,a2,1
    80002d4a:	f5f5                	bnez	a1,80002d36 <atol+0x48>
    80002d4c:	c299                	beqz	a3,80002d52 <atol+0x64>
    80002d4e:	40a00533          	neg	a0,a0
    80002d52:	8082                	ret

0000000080002d54 <main>:
    80002d54:	7155                	add	sp,sp,-208
    80002d56:	e586                	sd	ra,200(sp)
    80002d58:	e1a2                	sd	s0,192(sp)
    80002d5a:	fd26                	sd	s1,184(sp)
    80002d5c:	f94a                	sd	s2,176(sp)
    80002d5e:	f54e                	sd	s3,168(sp)
    80002d60:	f152                	sd	s4,160(sp)
    80002d62:	ed56                	sd	s5,152(sp)
    80002d64:	e95a                	sd	s6,144(sp)
    80002d66:	e55e                	sd	s7,136(sp)
    80002d68:	e162                	sd	s8,128(sp)
    80002d6a:	fce6                	sd	s9,120(sp)
    80002d6c:	f8ea                	sd	s10,112(sp)
    80002d6e:	f4ee                	sd	s11,104(sp)
    80002d70:	b0a2                	fsd	fs0,96(sp)
    80002d72:	300025f3          	csrr	a1,mstatus
    80002d76:	c2002673          	csrr	a2,vl
    80002d7a:	c21026f3          	csrr	a3,vtype
    80002d7e:	00001517          	auipc	a0,0x1
    80002d82:	85350513          	add	a0,a0,-1965 # 800035d1 <print_res+0x63f>
    80002d86:	ecb2                	sd	a2,88(sp)
    80002d88:	00000097          	auipc	ra,0x0
    80002d8c:	b74080e7          	jalr	-1164(ra) # 800028fc <printf>
    80002d90:	4501                	li	a0,0
    80002d92:	4581                	li	a1,0
    80002d94:	00011617          	auipc	a2,0x11
    80002d98:	ae460613          	add	a2,a2,-1308 # 80013878 <arr_d1_f>
    80002d9c:	00001497          	auipc	s1,0x1
    80002da0:	9a348493          	add	s1,s1,-1629 # 8000373f <arr_d2>
    80002da4:	10000693          	li	a3,256
    80002da8:	00950733          	add	a4,a0,s1
    80002dac:	00b70023          	sb	a1,0(a4)
    80002db0:	f0050713          	add	a4,a0,-256
    80002db4:	e218                	sd	a4,0(a2)
    80002db6:	0505                	add	a0,a0,1
    80002db8:	2585                	addw	a1,a1,1
    80002dba:	0621                	add	a2,a2,8
    80002dbc:	fed516e3          	bne	a0,a3,80002da8 <main+0x54>
    80002dc0:	4501                	li	a0,0
    80002dc2:	00001597          	auipc	a1,0x1
    80002dc6:	83358593          	add	a1,a1,-1997 # 800035f5 <print_res+0x663>
    80002dca:	e82e                	sd	a1,16(sp)
    80002dcc:	800005b7          	lui	a1,0x80000
    80002dd0:	35fd                	addw	a1,a1,-1 # 7fffffff <putchar.buflen+0x7fffffbf>
    80002dd2:	e42e                	sd	a1,8(sp)
    80002dd4:	00000597          	auipc	a1,0x0
    80002dd8:	7ac58593          	add	a1,a1,1964 # 80003580 <print_res+0x5ee>
    80002ddc:	e02e                	sd	a1,0(sp)
    80002dde:	00001a97          	auipc	s5,0x1
    80002de2:	861a8a93          	add	s5,s5,-1951 # 8000363f <arr_d1>
    80002de6:	00011597          	auipc	a1,0x11
    80002dea:	a9258593          	add	a1,a1,-1390 # 80013878 <arr_d1_f>
    80002dee:	ec2e                	sd	a1,24(sp)
    80002df0:	00001597          	auipc	a1,0x1
    80002df4:	a8458593          	add	a1,a1,-1404 # 80003874 <mask>
    80002df8:	e8ae                	sd	a1,80(sp)
    80002dfa:	00001597          	auipc	a1,0x1
    80002dfe:	a4e58593          	add	a1,a1,-1458 # 80003848 <temp_ptr>
    80002e02:	e4ae                	sd	a1,72(sp)
    80002e04:	00001597          	auipc	a1,0x1
    80002e08:	a6c58593          	add	a1,a1,-1428 # 80003870 <temp>
    80002e0c:	e0ae                	sd	a1,64(sp)
    80002e0e:	00001c17          	auipc	s8,0x1
    80002e12:	a6ac0c13          	add	s8,s8,-1430 # 80003878 <arr_dr>
    80002e16:	f0000453          	fmv.w.x	fs0,zero
    80002e1a:	00000597          	auipc	a1,0x0
    80002e1e:	7f458593          	add	a1,a1,2036 # 8000360e <print_res+0x67c>
    80002e22:	fc2e                	sd	a1,56(sp)
    80002e24:	00001417          	auipc	s0,0x1
    80002e28:	80a40413          	add	s0,s0,-2038 # 8000362e <print_res+0x69c>
    80002e2c:	04000a13          	li	s4,64
    80002e30:	8d2a                	mv	s10,a0
    80002e32:	45a9                	li	a1,10
    80002e34:	6542                	ld	a0,16(sp)
    80002e36:	00000097          	auipc	ra,0x0
    80002e3a:	ac6080e7          	jalr	-1338(ra) # 800028fc <printf>
    80002e3e:	4901                	li	s2,0
    80002e40:	4681                	li	a3,0
    80002e42:	6522                	ld	a0,8(sp)
    80002e44:	956a                	add	a0,a0,s10
    80002e46:	02151993          	sll	s3,a0,0x21
    80002e4a:	4219d513          	sra	a0,s3,0x21
    80002e4e:	050e                	sll	a0,a0,0x3
    80002e50:	6582                	ld	a1,0(sp)
    80002e52:	952e                	add	a0,a0,a1
    80002e54:	f82a                	sd	a0,48(sp)
    80002e56:	10000613          	li	a2,256
    80002e5a:	8556                	mv	a0,s5
    80002e5c:	f036                	sd	a3,32(sp)
    80002e5e:	85b6                	mv	a1,a3
    80002e60:	00000097          	auipc	ra,0x0
    80002e64:	de8080e7          	jalr	-536(ra) # 80002c48 <memset>
    80002e68:	4b01                	li	s6,0
    80002e6a:	f44a                	sd	s2,40(sp)
    80002e6c:	00391513          	sll	a0,s2,0x3
    80002e70:	65e2                	ld	a1,24(sp)
    80002e72:	00b50db3          	add	s11,a0,a1
    80002e76:	8ba6                	mv	s7,s1
    80002e78:	6526                	ld	a0,72(sp)
    80002e7a:	6108                	ld	a0,0(a0)
    80002e7c:	6586                	ld	a1,64(sp)
    80002e7e:	418c                	lw	a1,0(a1)
    80002e80:	6646                	ld	a2,80(sp)
    80002e82:	4210                	lw	a2,0(a2)
    80002e84:	006b1693          	sll	a3,s6,0x6
    80002e88:	8ca6                	mv	s9,s1
    80002e8a:	96a6                	add	a3,a3,s1
    80002e8c:	6766                	ld	a4,88(sp)
    80002e8e:	6719                	lui	a4,0x6
    80002e90:	2007071b          	addw	a4,a4,512 # 6200 <putchar.buflen+0x61c0>
    80002e94:	300025f3          	csrr	a1,mstatus
    80002e98:	7669                	lui	a2,0xffffa
    80002e9a:	9ff6061b          	addw	a2,a2,-1537 # ffffffffffff99ff <_tbss_end+0xffffffff7ffe593b>
    80002e9e:	8df1                	and	a1,a1,a2
    80002ea0:	8dd9                	or	a1,a1,a4
    80002ea2:	c10c                	sw	a1,0(a0)
    80002ea4:	30059073          	csrw	mstatus,a1
    80002ea8:	20000713          	li	a4,512
    80002eac:	0c077757          	vsetvli	a4,a4,e8,m1,ta,ma
    80002eb0:	020a8087          	vle8.v	v1,(s5)
    80002eb4:	02068107          	vle8.v	v2,(a3)
    80002eb8:	000db407          	fld	fs0,0(s11)
    80002ebc:	4501                	li	a0,0
    80002ebe:	03a50763          	beq	a0,s10,80002eec <VFADD_VV>
    80002ec2:	4505                	li	a0,1
    80002ec4:	03a50763          	beq	a0,s10,80002ef2 <VFSUB_VV>
    80002ec8:	4509                	li	a0,2
    80002eca:	03a50763          	beq	a0,s10,80002ef8 <VFMUL_VV>
    80002ece:	450d                	li	a0,3
    80002ed0:	03a50763          	beq	a0,s10,80002efe <VFDIV_VV>
    80002ed4:	4511                	li	a0,4
    80002ed6:	03a50763          	beq	a0,s10,80002f04 <VFADD_VF>
    80002eda:	4515                	li	a0,5
    80002edc:	03a50663          	beq	a0,s10,80002f08 <STORE>
    80002ee0:	4519                	li	a0,6
    80002ee2:	03a50363          	beq	a0,s10,80002f08 <STORE>
    80002ee6:	451d                	li	a0,7
    80002ee8:	03a50063          	beq	a0,s10,80002f08 <STORE>

0000000080002eec <VFADD_VV>:
    80002eec:	021111d7          	vfadd.vv	v3,v1,v2
    80002ef0:	a821                	j	80002f08 <STORE>

0000000080002ef2 <VFSUB_VV>:
    80002ef2:	0a1111d7          	vfsub.vv	v3,v1,v2
    80002ef6:	a809                	j	80002f08 <STORE>

0000000080002ef8 <VFMUL_VV>:
    80002ef8:	921111d7          	vfmul.vv	v3,v1,v2
    80002efc:	a031                	j	80002f08 <STORE>

0000000080002efe <VFDIV_VV>:
    80002efe:	821111d7          	vfdiv.vv	v3,v1,v2
    80002f02:	a019                	j	80002f08 <STORE>

0000000080002f04 <VFADD_VF>:
    80002f04:	022451d7          	vfadd.vf	v3,v2,fs0

0000000080002f08 <STORE>:
    80002f08:	020c01a7          	vse8.v	v3,(s8)
    80002f0c:	0219d513          	srl	a0,s3,0x21
    80002f10:	74e2                	ld	s1,56(sp)
    80002f12:	4589                	li	a1,2
    80002f14:	00a5e463          	bltu	a1,a0,80002f1c <STORE+0x14>
    80002f18:	7542                	ld	a0,48(sp)
    80002f1a:	6104                	ld	s1,0(a0)
    80002f1c:	4901                	li	s2,0
    80002f1e:	01590533          	add	a0,s2,s5
    80002f22:	00054603          	lbu	a2,0(a0)
    80002f26:	012b8533          	add	a0,s7,s2
    80002f2a:	00054683          	lbu	a3,0(a0)
    80002f2e:	01890533          	add	a0,s2,s8
    80002f32:	00054703          	lbu	a4,0(a0)
    80002f36:	8522                	mv	a0,s0
    80002f38:	85a6                	mv	a1,s1
    80002f3a:	00000097          	auipc	ra,0x0
    80002f3e:	9c2080e7          	jalr	-1598(ra) # 800028fc <printf>
    80002f42:	0905                	add	s2,s2,1
    80002f44:	fd491de3          	bne	s2,s4,80002f1e <STORE+0x16>
    80002f48:	0b05                	add	s6,s6,1
    80002f4a:	040b8b93          	add	s7,s7,64
    80002f4e:	84e6                	mv	s1,s9
    80002f50:	4511                	li	a0,4
    80002f52:	f2ab13e3          	bne	s6,a0,80002e78 <main+0x124>
    80002f56:	7922                	ld	s2,40(sp)
    80002f58:	0905                	add	s2,s2,1
    80002f5a:	7682                	ld	a3,32(sp)
    80002f5c:	2685                	addw	a3,a3,1
    80002f5e:	10000513          	li	a0,256
    80002f62:	eea91ae3          	bne	s2,a0,80002e56 <main+0x102>
    80002f66:	001d051b          	addw	a0,s10,1
    80002f6a:	458d                	li	a1,3
    80002f6c:	ecbd62e3          	bltu	s10,a1,80002e30 <main+0xdc>
    80002f70:	4501                	li	a0,0
    80002f72:	60ae                	ld	ra,200(sp)
    80002f74:	640e                	ld	s0,192(sp)
    80002f76:	74ea                	ld	s1,184(sp)
    80002f78:	794a                	ld	s2,176(sp)
    80002f7a:	79aa                	ld	s3,168(sp)
    80002f7c:	7a0a                	ld	s4,160(sp)
    80002f7e:	6aea                	ld	s5,152(sp)
    80002f80:	6b4a                	ld	s6,144(sp)
    80002f82:	6baa                	ld	s7,136(sp)
    80002f84:	6c0a                	ld	s8,128(sp)
    80002f86:	7ce6                	ld	s9,120(sp)
    80002f88:	7d46                	ld	s10,112(sp)
    80002f8a:	7da6                	ld	s11,104(sp)
    80002f8c:	3406                	fld	fs0,96(sp)
    80002f8e:	6169                	add	sp,sp,208
    80002f90:	8082                	ret

0000000080002f92 <print_res>:
    80002f92:	7139                	add	sp,sp,-64
    80002f94:	fc06                	sd	ra,56(sp)
    80002f96:	f822                	sd	s0,48(sp)
    80002f98:	f426                	sd	s1,40(sp)
    80002f9a:	f04a                	sd	s2,32(sp)
    80002f9c:	ec4e                	sd	s3,24(sp)
    80002f9e:	e852                	sd	s4,16(sp)
    80002fa0:	e456                	sd	s5,8(sp)
    80002fa2:	fff7871b          	addw	a4,a5,-1
    80002fa6:	4789                	li	a5,2
    80002fa8:	8932                	mv	s2,a2
    80002faa:	8aae                	mv	s5,a1
    80002fac:	842a                	mv	s0,a0
    80002fae:	00e7ee63          	bltu	a5,a4,80002fca <print_res+0x38>
    80002fb2:	00371513          	sll	a0,a4,0x3
    80002fb6:	00000597          	auipc	a1,0x0
    80002fba:	5ca58593          	add	a1,a1,1482 # 80003580 <print_res+0x5ee>
    80002fbe:	952e                	add	a0,a0,a1
    80002fc0:	00053983          	ld	s3,0(a0)
    80002fc4:	00d04963          	bgtz	a3,80002fd6 <print_res+0x44>
    80002fc8:	a081                	j	80003008 <print_res+0x76>
    80002fca:	00000997          	auipc	s3,0x0
    80002fce:	64498993          	add	s3,s3,1604 # 8000360e <print_res+0x67c>
    80002fd2:	02d05b63          	blez	a3,80003008 <print_res+0x76>
    80002fd6:	02069513          	sll	a0,a3,0x20
    80002fda:	02055493          	srl	s1,a0,0x20
    80002fde:	00000a17          	auipc	s4,0x0
    80002fe2:	650a0a13          	add	s4,s4,1616 # 8000362e <print_res+0x69c>
    80002fe6:	00044603          	lbu	a2,0(s0)
    80002fea:	000ac683          	lbu	a3,0(s5)
    80002fee:	00094703          	lbu	a4,0(s2)
    80002ff2:	8552                	mv	a0,s4
    80002ff4:	85ce                	mv	a1,s3
    80002ff6:	00000097          	auipc	ra,0x0
    80002ffa:	906080e7          	jalr	-1786(ra) # 800028fc <printf>
    80002ffe:	0405                	add	s0,s0,1
    80003000:	0a85                	add	s5,s5,1
    80003002:	14fd                	add	s1,s1,-1
    80003004:	0905                	add	s2,s2,1
    80003006:	f0e5                	bnez	s1,80002fe6 <print_res+0x54>
    80003008:	70e2                	ld	ra,56(sp)
    8000300a:	7442                	ld	s0,48(sp)
    8000300c:	74a2                	ld	s1,40(sp)
    8000300e:	7902                	ld	s2,32(sp)
    80003010:	69e2                	ld	s3,24(sp)
    80003012:	6a42                	ld	s4,16(sp)
    80003014:	6aa2                	ld	s5,8(sp)
    80003016:	6121                	add	sp,sp,64
    80003018:	8082                	ret
